target datalayout = "e-m:e-p270:32:32-p271:32:32-p272:64:64-i64:64-i128:128-f80:128-n8:16:32:64-S128"
target triple = "x86_64-pc-linux-gnu"

%"class.std::vector" = type { %"struct.std::_Vector_base" }
%"struct.std::_Vector_base" = type { %"struct.std::_Vector_base<std::__cxx11::basic_string<char>, std::allocator<std::__cxx11::basic_string<char>>>::_Vector_impl" }
%"struct.std::_Vector_base<std::__cxx11::basic_string<char>, std::allocator<std::__cxx11::basic_string<char>>>::_Vector_impl" = type { %"struct.std::_Vector_base<std::__cxx11::basic_string<char>, std::allocator<std::__cxx11::basic_string<char>>>::_Vector_impl_data" }
%"struct.std::_Vector_base<std::__cxx11::basic_string<char>, std::allocator<std::__cxx11::basic_string<char>>>::_Vector_impl_data" = type { ptr, ptr, ptr }
%"struct.std::_Rb_tree_header" = type { %"struct.std::_Rb_tree_node_base", i64 }
%"struct.std::_Rb_tree_node_base" = type { i32, ptr, ptr, ptr }
%"class.std::__cxx11::basic_string" = type { %"struct.std::__cxx11::basic_string<char>::_Alloc_hider", i64, %union.anon }
%"struct.std::__cxx11::basic_string<char>::_Alloc_hider" = type { ptr }
%union.anon = type { i64, [8 x i8] }
%"class.casadi::Function" = type { %"class.casadi::SharedObject" }
%"class.casadi::SharedObject" = type { %"class.casadi::GenericShared" }
%"class.casadi::GenericShared" = type { ptr }
%"class.std::map.23" = type { %"class.std::_Rb_tree.24" }
%"class.std::_Rb_tree.24" = type { %"struct.std::_Rb_tree<std::__cxx11::basic_string<char>, std::pair<const std::__cxx11::basic_string<char>, casadi::GenericType>, std::_Select1st<std::pair<const std::__cxx11::basic_string<char>, casadi::GenericType>>, std::less<std::__cxx11::basic_string<char>>>::_Rb_tree_impl" }
%"struct.std::_Rb_tree<std::__cxx11::basic_string<char>, std::pair<const std::__cxx11::basic_string<char>, casadi::GenericType>, std::_Select1st<std::pair<const std::__cxx11::basic_string<char>, casadi::GenericType>>, std::less<std::__cxx11::basic_string<char>>>::_Rb_tree_impl" = type { [8 x i8], %"struct.std::_Rb_tree_header" }
%"class.casadi::Sparsity" = type { %"class.casadi::SharedObject" }
%"class.casadi::Conic" = type { %"class.casadi::FunctionInternal", %"class.casadi::PluginInterface", %"struct.casadi::casadi_qp_prob", %"class.std::vector.14", %"class.std::vector.14", i8, %"class.casadi::Sparsity", %"class.casadi::Sparsity", %"class.casadi::Sparsity", %"class.casadi::Sparsity", i64, i64, i64 }
%"class.casadi::FunctionInternal" = type { %"class.casadi::ProtoFunction", i8, i8, i64, i64, %"class.std::vector.14", %"class.std::vector.14", %"class.std::vector.18", %"class.std::vector.18", %"class.std::vector", %"class.std::vector", i8, i8, %"class.std::__cxx11::basic_string", %"class.std::__cxx11::basic_string", %"class.std::__cxx11::basic_string", i8, ptr, ptr, ptr, %"class.std::map.23", i8, %"class.std::map.23", %"class.casadi::WeakCache", [2 x %"class.std::vector.18"], %"class.casadi::Function", ptr, %"class.std::__cxx11::basic_string", %"class.casadi::Importer", %"class.std::map.23", double, i8, i8, i8, i8, i8, i8, i8, i8, double, double, i64, i8, %"class.std::map.23", double, %"class.std::__cxx11::basic_string", i8, i8, i64, i8, i8, i8, %"class.std::__cxx11::basic_string", %"class.std::__cxx11::basic_string", %"class.std::map.23", %"class.std::map.23", %"class.std::map.23", %"class.std::map.23", %"class.casadi::Function", i64, i64, i64, i64, i64, i64, i64, i64, i64 }
%"class.casadi::ProtoFunction" = type { %"class.casadi::SharedObjectInternal", %"class.std::__cxx11::basic_string", i8, i8, i8, i8, i8, %"class.std::vector.6", %"class.std::stack" }
%"class.casadi::SharedObjectInternal" = type { %"class.casadi::GenericSharedInternal", i64 }
%"class.casadi::GenericSharedInternal" = type { ptr, ptr }
%"class.std::vector.6" = type { %"struct.std::_Vector_base.7" }
%"struct.std::_Vector_base.7" = type { %"struct.std::_Vector_base<void *, std::allocator<void *>>::_Vector_impl" }
%"struct.std::_Vector_base<void *, std::allocator<void *>>::_Vector_impl" = type { %"struct.std::_Vector_base<void *, std::allocator<void *>>::_Vector_impl_data" }
%"struct.std::_Vector_base<void *, std::allocator<void *>>::_Vector_impl_data" = type { ptr, ptr, ptr }
%"class.std::stack" = type { %"class.std::deque" }
%"class.std::deque" = type { %"class.std::_Deque_base" }
%"class.std::_Deque_base" = type { %"struct.std::_Deque_base<int, std::allocator<int>>::_Deque_impl" }
%"struct.std::_Deque_base<int, std::allocator<int>>::_Deque_impl" = type { %"struct.std::_Deque_base<int, std::allocator<int>>::_Deque_impl_data" }
%"struct.std::_Deque_base<int, std::allocator<int>>::_Deque_impl_data" = type { ptr, i64, %"struct.std::_Deque_iterator", %"struct.std::_Deque_iterator" }
%"struct.std::_Deque_iterator" = type { ptr, ptr, ptr, ptr }
%"class.std::vector.18" = type { %"struct.std::_Vector_base.19" }
%"struct.std::_Vector_base.19" = type { %"struct.std::_Vector_base<casadi::Sparsity, std::allocator<casadi::Sparsity>>::_Vector_impl" }
%"struct.std::_Vector_base<casadi::Sparsity, std::allocator<casadi::Sparsity>>::_Vector_impl" = type { %"struct.std::_Vector_base<casadi::Sparsity, std::allocator<casadi::Sparsity>>::_Vector_impl_data" }
%"struct.std::_Vector_base<casadi::Sparsity, std::allocator<casadi::Sparsity>>::_Vector_impl_data" = type { ptr, ptr, ptr }
%"class.casadi::WeakCache" = type { %"class.std::unordered_map" }
%"class.std::unordered_map" = type { %"class.std::_Hashtable" }
%"class.std::_Hashtable" = type { ptr, i64, %"struct.std::__detail::_Hash_node_base", i64, %"struct.std::__detail::_Prime_rehash_policy", ptr }
%"struct.std::__detail::_Hash_node_base" = type { ptr }
%"struct.std::__detail::_Prime_rehash_policy" = type { float, i64 }
%"class.casadi::Importer" = type { %"class.casadi::SharedObject" }
%"class.casadi::PluginInterface" = type { ptr }
%"struct.casadi::casadi_qp_prob" = type { ptr, ptr, i64, i64, i64, i64, i64 }
%"class.std::vector.14" = type { %"struct.std::_Bvector_base" }
%"struct.std::_Bvector_base" = type { %"struct.std::_Bvector_base<std::allocator<bool>>::_Bvector_impl" }
%"struct.std::_Bvector_base<std::allocator<bool>>::_Bvector_impl" = type { %"struct.std::_Bvector_base<std::allocator<bool>>::_Bvector_impl_data" }
%"struct.std::_Bvector_base<std::allocator<bool>>::_Bvector_impl_data" = type { %"struct.std::_Bit_iterator", %"struct.std::_Bit_iterator", ptr }
%"struct.std::_Bit_iterator" = type { %"struct.std::_Bit_iterator_base.base", [4 x i8] }
%"struct.std::_Bit_iterator_base.base" = type <{ ptr, i32 }>

; Function Attrs: mustprogress nounwind uwtable
define linkonce_odr hidden void @_ZN6casadi15casadi_qp_setupIdEEvPNS_14casadi_qp_probIT_EE(ptr noundef %0) #5 comdat {
  %2 = alloca ptr, align 8
  store ptr %0, ptr %2, align 8, !tbaa !331
  %3 = load ptr, ptr %2, align 8, !tbaa !331
  %4 = getelementptr inbounds nuw %"struct.casadi::casadi_qp_prob", ptr %3, i32 0, i32 0
  %5 = load ptr, ptr %4, align 8, !tbaa !332
  %6 = getelementptr inbounds i64, ptr %5, i64 0
  %7 = load i64, ptr %6, align 8, !tbaa !58
  %8 = load ptr, ptr %2, align 8, !tbaa !331
  %9 = getelementptr inbounds nuw %"struct.casadi::casadi_qp_prob", ptr %8, i32 0, i32 3
  store i64 %7, ptr %9, align 8, !tbaa !333
  %10 = load ptr, ptr %2, align 8, !tbaa !331
  %11 = getelementptr inbounds nuw %"struct.casadi::casadi_qp_prob", ptr %10, i32 0, i32 0
  %12 = load ptr, ptr %11, align 8, !tbaa !332
  %13 = getelementptr inbounds i64, ptr %12, i64 1
  %14 = load i64, ptr %13, align 8, !tbaa !58
  %15 = load ptr, ptr %2, align 8, !tbaa !331
  %16 = getelementptr inbounds nuw %"struct.casadi::casadi_qp_prob", ptr %15, i32 0, i32 2
  store i64 %14, ptr %16, align 8, !tbaa !334
  %17 = load ptr, ptr %2, align 8, !tbaa !331
  %18 = getelementptr inbounds nuw %"struct.casadi::casadi_qp_prob", ptr %17, i32 0, i32 3
  %19 = load i64, ptr %18, align 8, !tbaa !333
  %20 = load ptr, ptr %2, align 8, !tbaa !331
  %21 = getelementptr inbounds nuw %"struct.casadi::casadi_qp_prob", ptr %20, i32 0, i32 2
  %22 = load i64, ptr %21, align 8, !tbaa !334
  %23 = add nsw i64 %19, %22
  %24 = load ptr, ptr %2, align 8, !tbaa !331
  %25 = getelementptr inbounds nuw %"struct.casadi::casadi_qp_prob", ptr %24, i32 0, i32 4
  store i64 %23, ptr %25, align 8, !tbaa !335
  %26 = load ptr, ptr %2, align 8, !tbaa !331
  %27 = getelementptr inbounds nuw %"struct.casadi::casadi_qp_prob", ptr %26, i32 0, i32 0
  %28 = load ptr, ptr %27, align 8, !tbaa !332
  %29 = load ptr, ptr %2, align 8, !tbaa !331
  %30 = getelementptr inbounds nuw %"struct.casadi::casadi_qp_prob", ptr %29, i32 0, i32 0
  %31 = load ptr, ptr %30, align 8, !tbaa !332
  %32 = getelementptr inbounds i64, ptr %31, i64 1
  %33 = load i64, ptr %32, align 8, !tbaa !58
  %34 = add nsw i64 2, %33
  %35 = getelementptr inbounds i64, ptr %28, i64 %34
  %36 = load i64, ptr %35, align 8, !tbaa !58
  %37 = load ptr, ptr %2, align 8, !tbaa !331
  %38 = getelementptr inbounds nuw %"struct.casadi::casadi_qp_prob", ptr %37, i32 0, i32 5
  store i64 %36, ptr %38, align 8, !tbaa !336
  %39 = load ptr, ptr %2, align 8, !tbaa !331
  %40 = getelementptr inbounds nuw %"struct.casadi::casadi_qp_prob", ptr %39, i32 0, i32 1
  %41 = load ptr, ptr %40, align 8, !tbaa !337
  %42 = load ptr, ptr %2, align 8, !tbaa !331
  %43 = getelementptr inbounds nuw %"struct.casadi::casadi_qp_prob", ptr %42, i32 0, i32 1
  %44 = load ptr, ptr %43, align 8, !tbaa !337
  %45 = getelementptr inbounds i64, ptr %44, i64 1
  %46 = load i64, ptr %45, align 8, !tbaa !58
  %47 = add nsw i64 2, %46
  %48 = getelementptr inbounds i64, ptr %41, i64 %47
  %49 = load i64, ptr %48, align 8, !tbaa !58
  %50 = load ptr, ptr %2, align 8, !tbaa !331
  %51 = getelementptr inbounds nuw %"struct.casadi::casadi_qp_prob", ptr %50, i32 0, i32 6
  store i64 %49, ptr %51, align 8, !tbaa !338
  ret void
}

; Function Attrs: mustprogress uwtable
define void @_ZN6casadi5Conic11set_qp_probEv(ptr noundef nonnull align 8 dereferenceable(1520) %0) #6 align 2 {
  %2 = alloca ptr, align 8
  store ptr %0, ptr %2, align 8, !tbaa !53
  %3 = load ptr, ptr %2, align 8
  %4 = getelementptr inbounds nuw %"class.casadi::Conic", ptr %3, i32 0, i32 7
  %5 = call noundef ptr @_ZNK6casadi8SparsitycvPKxEv(ptr noundef nonnull align 8 dereferenceable(8) %4)
  %6 = getelementptr inbounds nuw %"class.casadi::Conic", ptr %3, i32 0, i32 2
  %7 = getelementptr inbounds nuw %"struct.casadi::casadi_qp_prob", ptr %6, i32 0, i32 0
  store ptr %5, ptr %7, align 8, !tbaa !215
  %8 = getelementptr inbounds nuw %"class.casadi::Conic", ptr %3, i32 0, i32 6
  %9 = call noundef ptr @_ZNK6casadi8SparsitycvPKxEv(ptr noundef nonnull align 8 dereferenceable(8) %8)
  %10 = getelementptr inbounds nuw %"class.casadi::Conic", ptr %3, i32 0, i32 2
  %11 = getelementptr inbounds nuw %"struct.casadi::casadi_qp_prob", ptr %10, i32 0, i32 1
  store ptr %9, ptr %11, align 8, !tbaa !216
  %12 = getelementptr inbounds nuw %"class.casadi::Conic", ptr %3, i32 0, i32 2
  call void @_ZN6casadi15casadi_qp_setupIdEEvPNS_14casadi_qp_probIT_EE(ptr noundef %12)
  ret void
}