; Function Attrs: mustprogress uwtable
define void @_ZN6casadi5Conic11set_qp_probEv(ptr noundef nonnull align 8 dereferenceable(1520) %0) local_unnamed_addr #4 align 2 {
  %2 = getelementptr inbounds nuw i8, ptr %0, i64 1472
  %3 = tail call noundef ptr @_ZNK6casadi8SparsitycvPKxEv(ptr noundef nonnull align 8 dereferenceable(8) %2)
  %4 = getelementptr inbounds nuw i8, ptr %0, i64 1320
  store ptr %3, ptr %4, align 8, !tbaa !329
  %5 = getelementptr inbounds nuw i8, ptr %0, i64 1464
  %6 = tail call noundef ptr @_ZNK6casadi8SparsitycvPKxEv(ptr noundef nonnull align 8 dereferenceable(8) %5)
  %7 = getelementptr inbounds nuw i8, ptr %0, i64 1328
  store ptr %6, ptr %7, align 8, !tbaa !330
  %8 = load ptr, ptr %4, align 8, !tbaa !331
  %9 = load i64, ptr %8, align 8, !tbaa !298
  %10 = getelementptr inbounds nuw i8, ptr %0, i64 1344
  store i64 %9, ptr %10, align 8, !tbaa !332
  %11 = getelementptr inbounds nuw i8, ptr %8, i64 8
  %12 = load i64, ptr %11, align 8, !tbaa !298
  %13 = getelementptr inbounds nuw i8, ptr %0, i64 1336
  store i64 %12, ptr %13, align 8, !tbaa !333
  %14 = add nsw i64 %12, %9
  %15 = getelementptr inbounds nuw i8, ptr %0, i64 1352
  store i64 %14, ptr %15, align 8, !tbaa !334
  %16 = load i64, ptr %11, align 8, !tbaa !298
  %17 = getelementptr i64, ptr %8, i64 %16
  %18 = getelementptr i8, ptr %17, i64 16
  %19 = load i64, ptr %18, align 8, !tbaa !298
  %20 = getelementptr inbounds nuw i8, ptr %0, i64 1360
  store i64 %19, ptr %20, align 8, !tbaa !335
  %21 = getelementptr inbounds nuw i8, ptr %6, i64 8
  %22 = load i64, ptr %21, align 8, !tbaa !298
  %23 = getelementptr i64, ptr %6, i64 %22
  %24 = getelementptr i8, ptr %23, i64 16
  %25 = load i64, ptr %24, align 8, !tbaa !298
  %26 = getelementptr inbounds nuw i8, ptr %0, i64 1368
  store i64 %25, ptr %26, align 8, !tbaa !336
  ret void
}